(dp0
S'Create yabt status'
p1
S'78c759c3b155933b5978850bbb21da4ea67f8d6b'
p2
sS'Create `yabt edit` command'
p3
S'e5f55e4ce9078fc1d7644eee6ca98940ea0615e2'
p4
sS'Start self hosting yabt'
p5
S'0b18be24ed2c77a5eec85007f612bcf50408ed94'
p6
sS'katy bar the door'
p7
S'93a311cde8c10832934494d50ae3a4abf3ae124f'
p8
s.